; Function Attrs: nounwind uwtable
define internal fastcc zeroext range(i8 0, 2) i8 @storeRawNames(ptr noundef readonly captures(none) %0) unnamed_addr #0 {
  %2 = getelementptr inbounds nuw i8, ptr %0, i64 704
  %3 = getelementptr inbounds nuw i8, ptr %0, i64 32
  %.04762 = load ptr, ptr %2, align 8, !tbaa !239
  %.not63 = icmp eq ptr %.04762, null
  br i1 %.not63, label %.thread59, label %.lr.ph

.lr.ph:                                           ; preds = %1, %49
  %.04764 = phi ptr [ %.047, %49 ], [ %.04762, %1 ]
  %4 = getelementptr inbounds nuw i8, ptr %.04764, i64 24
  %5 = getelementptr inbounds nuw i8, ptr %.04764, i64 48
  %6 = load i32, ptr %5, align 8, !tbaa !240
  %7 = add i32 %6, 1
  %8 = sext i32 %7 to i64
  %9 = getelementptr inbounds nuw i8, ptr %.04764, i64 64
  %10 = load ptr, ptr %9, align 8, !tbaa !183
  %11 = getelementptr i8, ptr %10, i64 %8
  %12 = getelementptr inbounds nuw i8, ptr %.04764, i64 8
  %13 = load ptr, ptr %12, align 8, !tbaa !241
  %14 = icmp eq ptr %13, %11
  br i1 %14, label %.thread59, label %15

15:                                               ; preds = %.lr.ph
  %16 = getelementptr inbounds nuw i8, ptr %.04764, i64 16
  %17 = load i32, ptr %16, align 8, !tbaa !242
  %18 = sext i32 %17 to i64
  %19 = sub nsw i64 2147483647, %8
  %20 = icmp ult i64 %19, %18
  br i1 %20, label %.thread59, label %21

21:                                               ; preds = %15
  %22 = add i32 %17, %7
  %23 = sext i32 %22 to i64
  %24 = getelementptr inbounds nuw i8, ptr %.04764, i64 72
  %25 = load ptr, ptr %24, align 8, !tbaa !243
  %26 = ptrtoint ptr %25 to i64
  %27 = ptrtoint ptr %10 to i64
  %28 = sub i64 %26, %27
  %29 = icmp slt i64 %28, %23
  br i1 %29, label %30, label %49

30:                                               ; preds = %21
  %31 = load ptr, ptr %3, align 8, !tbaa !210
  %32 = tail call ptr %31(ptr noundef %10, i64 noundef %23) #25
  %.not54 = icmp eq ptr %32, null
  br i1 %.not54, label %.thread59, label %33

33:                                               ; preds = %30
  %34 = load ptr, ptr %4, align 8, !tbaa !244
  %35 = load ptr, ptr %9, align 8, !tbaa !183
  %36 = icmp eq ptr %34, %35
  br i1 %36, label %37, label %38

37:                                               ; preds = %33
  store ptr %32, ptr %4, align 8, !tbaa !244
  br label %38

38:                                               ; preds = %37, %33
  %39 = getelementptr inbounds nuw i8, ptr %.04764, i64 32
  %40 = load ptr, ptr %39, align 8, !tbaa !245
  %.not53 = icmp eq ptr %40, null
  br i1 %.not53, label %46, label %41

41:                                               ; preds = %38
  %42 = ptrtoint ptr %40 to i64
  %43 = ptrtoint ptr %35 to i64
  %44 = sub i64 %42, %43
  %45 = getelementptr i8, ptr %32, i64 %44
  store ptr %45, ptr %39, align 8, !tbaa !245
  br label %46

46:                                               ; preds = %38, %41
  store ptr %32, ptr %9, align 8, !tbaa !183
  %47 = getelementptr i8, ptr %32, i64 %23
  store ptr %47, ptr %24, align 8, !tbaa !243
  %48 = getelementptr i8, ptr %32, i64 %8
  %.pre = load ptr, ptr %12, align 8, !tbaa !241
  %.pre71 = load i32, ptr %16, align 8, !tbaa !242
  %.pre72 = sext i32 %.pre71 to i64
  br label %49

49:                                               ; preds = %21, %46
  %.pre-phi = phi i64 [ %18, %21 ], [ %.pre72, %46 ]
  %50 = phi ptr [ %13, %21 ], [ %.pre, %46 ]
  %.045 = phi ptr [ %11, %21 ], [ %48, %46 ]
  tail call void @llvm.memcpy.p0.p0.i64(ptr align 1 %.045, ptr align 1 %50, i64 %.pre-phi, i1 false)
  store ptr %.045, ptr %12, align 8, !tbaa !241
  %.047 = load ptr, ptr %.04764, align 8, !tbaa !239
  %.not = icmp eq ptr %.047, null
  br i1 %.not, label %.thread59, label %.lr.ph

.thread59:                                        ; preds = %49, %.lr.ph, %15, %30, %1
  %.4 = phi i8 [ 1, %1 ], [ 0, %30 ], [ 0, %15 ], [ 1, %.lr.ph ], [ 1, %49 ]
  ret i8 %.4
}